(dp1
S'basismatrix'
p2
cnumpy.core.multiarray
_reconstruct
p3
(cnumpy
ndarray
p4
(I0
tS'b'
tRp5
(I1
(I2
I2
tcnumpy
dtype
p6
(S'i2'
I0
I1
tRp7
(I3
S'<'
NNNI-1
I-1
I0
tbI00
S'\xfe\xff\xfa\x02\xff\x01\x01\x00'
tbsS'calibrated'
p8
I00
sS'offset'
p9
g3
(g4
(I0
tS'b'
tRp10
(I1
(I2
tg7
I00
S'x\x00\x86\x00'
tbs.